target datalayout = "e-m:e-p270:32:32-p271:32:32-p272:64:64-i64:64-i128:128-f80:128-n8:16:32:64-S128"
target triple = "x86_64-pc-linux-gnu"

%struct.subnet_length_entry_t = type { i64, i32, ptr }
%struct.subnet_entry_t = type { i32, i64, ptr }
%struct.hashipv4 = type { i32, i8, [16 x i8], [256 x i8], [19 x i8] }
%struct.sub_net_hashipv4 = type { i32, i8, ptr, [64 x i8] }

@.str.4 = private unnamed_addr constant [5 x i8] c"%s%s\00", align 1
@.str.5 = private unnamed_addr constant [7 x i8] c"%s%s%u\00", align 1
@.str.6 = private unnamed_addr constant [2 x i8] c"/\00", align 1
@have_subnet_entry = internal global i8 0, align 1
@subnet_length_entries = internal global [32 x %struct.subnet_length_entry_t] zeroinitializer, align 16

; Function Attrs: nounwind null_pointer_is_valid sspstrong uwtable
define internal void @subnet_lookup(ptr dead_on_unwind noalias writable sret(%struct.subnet_entry_t) align 8 %0, i32 noundef %1) #0 {
  %3 = alloca i32, align 4
  %4 = alloca i32, align 4
  %5 = alloca i32, align 4
  %6 = alloca ptr, align 8
  %7 = alloca ptr, align 8
  %8 = alloca i32, align 4
  %9 = alloca i32, align 4
  %10 = alloca i32, align 4
  %11 = alloca i32, align 4
  %12 = alloca i32, align 4
  store i32 %1, ptr %3, align 4
  call void @llvm.lifetime.start.p0(i64 4, ptr %4) #16
  store i32 32, ptr %4, align 4
  br label %13

13:                                               ; preds = %111, %2
  %14 = load i8, ptr @have_subnet_entry, align 1, !range !8, !noundef !9
  %15 = trunc i8 %14 to i1
  br i1 %15, label %16, label %19

16:                                               ; preds = %13
  %17 = load i32, ptr %4, align 4
  %18 = icmp ugt i32 %17, 0
  br label %19

19:                                               ; preds = %16, %13
  %20 = phi i1 [ false, %13 ], [ %18, %16 ]
  br i1 %20, label %21, label %112

21:                                               ; preds = %19
  call void @llvm.lifetime.start.p0(i64 4, ptr %5) #16
  call void @llvm.lifetime.start.p0(i64 8, ptr %6) #16
  %22 = load i32, ptr %4, align 4
  %23 = add i32 %22, -1
  store i32 %23, ptr %4, align 4
  br label %24

24:                                               ; preds = %21
  br label %25

25:                                               ; preds = %24
  br label %26

26:                                               ; preds = %25
  %27 = load i32, ptr %4, align 4
  %28 = zext i32 %27 to i64
  %29 = getelementptr [32 x %struct.subnet_length_entry_t], ptr @subnet_length_entries, i64 0, i64 %28
  store ptr %29, ptr %6, align 8
  %30 = load ptr, ptr %6, align 8
  %31 = getelementptr inbounds nuw %struct.subnet_length_entry_t, ptr %30, i32 0, i32 2
  %32 = load ptr, ptr %31, align 8
  %33 = icmp ne ptr null, %32
  br i1 %33, label %34, label %108

34:                                               ; preds = %26
  call void @llvm.lifetime.start.p0(i64 8, ptr %7) #16
  call void @llvm.lifetime.start.p0(i64 4, ptr %8) #16
  %35 = load i32, ptr %3, align 4
  %36 = load ptr, ptr %6, align 8
  %37 = getelementptr inbounds nuw %struct.subnet_length_entry_t, ptr %36, i32 0, i32 1
  %38 = load i32, ptr %37, align 8
  %39 = and i32 %35, %38
  store i32 %39, ptr %5, align 4
  call void @llvm.lifetime.start.p0(i64 4, ptr %9) #16
  call void @llvm.lifetime.start.p0(i64 4, ptr %10) #16
  %40 = load i32, ptr %5, align 4
  store i32 %40, ptr %10, align 4
  %41 = load i32, ptr %10, align 4
  %42 = call i1 @llvm.is.constant.i32(i32 %41)
  br i1 %42, label %43, label %59

43:                                               ; preds = %34
  %44 = load i32, ptr %10, align 4
  %45 = and i32 %44, 255
  %46 = shl i32 %45, 24
  %47 = load i32, ptr %10, align 4
  %48 = and i32 %47, 65280
  %49 = shl i32 %48, 8
  %50 = or i32 %46, %49
  %51 = load i32, ptr %10, align 4
  %52 = and i32 %51, 16711680
  %53 = lshr i32 %52, 8
  %54 = or i32 %50, %53
  %55 = load i32, ptr %10, align 4
  %56 = and i32 %55, -16777216
  %57 = lshr i32 %56, 24
  %58 = or i32 %54, %57
  store i32 %58, ptr %9, align 4
  br label %62

59:                                               ; preds = %34
  %60 = load i32, ptr %10, align 4
  %61 = call i32 asm "bswapl $0", "=r,0,~{dirflag},~{fpsr},~{flags}"(i32 %60) #20, !srcloc !13
  store i32 %61, ptr %9, align 4
  br label %62

62:                                               ; preds = %59, %43
  %63 = load i32, ptr %9, align 4
  store i32 %63, ptr %11, align 4
  call void @llvm.lifetime.end.p0(i64 4, ptr %10) #16
  call void @llvm.lifetime.end.p0(i64 4, ptr %9) #16
  %64 = load i32, ptr %11, align 4
  %65 = and i32 %64, 2047
  store i32 %65, ptr %8, align 4
  %66 = load ptr, ptr %6, align 8
  %67 = getelementptr inbounds nuw %struct.subnet_length_entry_t, ptr %66, i32 0, i32 2
  %68 = load ptr, ptr %67, align 8
  %69 = load i32, ptr %8, align 4
  %70 = zext i32 %69 to i64
  %71 = getelementptr ptr, ptr %68, i64 %70
  %72 = load ptr, ptr %71, align 8
  store ptr %72, ptr %7, align 8
  br label %73

73:                                               ; preds = %84, %62
  %74 = load ptr, ptr %7, align 8
  %75 = icmp ne ptr %74, null
  br i1 %75, label %76, label %82

76:                                               ; preds = %73
  %77 = load ptr, ptr %7, align 8
  %78 = getelementptr inbounds nuw %struct.sub_net_hashipv4, ptr %77, i32 0, i32 0
  %79 = load i32, ptr %78, align 8
  %80 = load i32, ptr %5, align 4
  %81 = icmp ne i32 %79, %80
  br label %82

82:                                               ; preds = %76, %73
  %83 = phi i1 [ false, %73 ], [ %81, %76 ]
  br i1 %83, label %84, label %88

84:                                               ; preds = %82
  %85 = load ptr, ptr %7, align 8
  %86 = getelementptr inbounds nuw %struct.sub_net_hashipv4, ptr %85, i32 0, i32 2
  %87 = load ptr, ptr %86, align 8
  store ptr %87, ptr %7, align 8
  br label %73, !llvm.loop !14

88:                                               ; preds = %82
  %89 = load ptr, ptr %7, align 8
  %90 = icmp ne ptr null, %89
  br i1 %90, label %91, label %104

91:                                               ; preds = %88
  %92 = load ptr, ptr %6, align 8
  %93 = getelementptr inbounds nuw %struct.subnet_length_entry_t, ptr %92, i32 0, i32 1
  %94 = load i32, ptr %93, align 8
  %95 = getelementptr inbounds nuw %struct.subnet_entry_t, ptr %0, i32 0, i32 0
  store i32 %94, ptr %95, align 8
  %96 = load i32, ptr %4, align 4
  %97 = add i32 %96, 1
  %98 = zext i32 %97 to i64
  %99 = getelementptr inbounds nuw %struct.subnet_entry_t, ptr %0, i32 0, i32 1
  store i64 %98, ptr %99, align 8
  %100 = load ptr, ptr %7, align 8
  %101 = getelementptr inbounds nuw %struct.sub_net_hashipv4, ptr %100, i32 0, i32 3
  %102 = getelementptr inbounds [64 x i8], ptr %101, i64 0, i64 0
  %103 = getelementptr inbounds nuw %struct.subnet_entry_t, ptr %0, i32 0, i32 2
  store ptr %102, ptr %103, align 8
  store i32 1, ptr %12, align 4
  br label %105

104:                                              ; preds = %88
  store i32 0, ptr %12, align 4
  br label %105

105:                                              ; preds = %104, %91
  call void @llvm.lifetime.end.p0(i64 4, ptr %8) #16
  call void @llvm.lifetime.end.p0(i64 8, ptr %7) #16
  %106 = load i32, ptr %12, align 4
  switch i32 %106, label %109 [
    i32 0, label %107
  ]

107:                                              ; preds = %105
  br label %108

108:                                              ; preds = %107, %26
  store i32 0, ptr %12, align 4
  br label %109

109:                                              ; preds = %108, %105
  call void @llvm.lifetime.end.p0(i64 8, ptr %6) #16
  call void @llvm.lifetime.end.p0(i64 4, ptr %5) #16
  %110 = load i32, ptr %12, align 4
  switch i32 %110, label %116 [
    i32 0, label %111
  ]

111:                                              ; preds = %109
  br label %13, !llvm.loop !15

112:                                              ; preds = %19
  %113 = getelementptr inbounds nuw %struct.subnet_entry_t, ptr %0, i32 0, i32 0
  store i32 0, ptr %113, align 8
  %114 = getelementptr inbounds nuw %struct.subnet_entry_t, ptr %0, i32 0, i32 1
  store i64 0, ptr %114, align 8
  %115 = getelementptr inbounds nuw %struct.subnet_entry_t, ptr %0, i32 0, i32 2
  store ptr null, ptr %115, align 8
  store i32 1, ptr %12, align 4
  br label %116

116:                                              ; preds = %112, %109
  call void @llvm.lifetime.end.p0(i64 4, ptr %4) #16
  ret void
}

; Function Attrs: null_pointer_is_valid sspstrong uwtable
define zeroext i1 @fill_dummy_ip4(i32 noundef %0, ptr noundef %1) #3 {
  %3 = alloca i32, align 4
  %4 = alloca ptr, align 8
  %5 = alloca %struct.subnet_entry_t, align 8
  %6 = alloca i8, align 1
  %7 = alloca %struct.subnet_entry_t, align 8
  %8 = alloca i32, align 4
  %9 = alloca [16 x i8], align 16
  %10 = alloca ptr, align 8
  %11 = alloca i64, align 8
  %12 = alloca i32, align 4
  %13 = alloca [16 x i8], align 16
  %14 = alloca [19 x i8], align 16
  store i32 %0, ptr %3, align 4
  store volatile ptr %1, ptr %4, align 8
  call void @llvm.lifetime.start.p0(i64 24, ptr %5) #16
  call void @llvm.lifetime.start.p0(i64 1, ptr %6) #16
  store i8 0, ptr %6, align 1
  call void @llvm.lifetime.start.p0(i64 24, ptr %7) #16
  %15 = load i32, ptr %3, align 4
  call void @subnet_lookup(ptr dead_on_unwind writable sret(%struct.subnet_entry_t) align 8 %7, i32 noundef %15)
  call void @llvm.memcpy.p0.p0.i64(ptr align 8 %5, ptr align 8 %7, i64 24, i1 false)
  call void @llvm.lifetime.end.p0(i64 24, ptr %7) #16
  %16 = getelementptr inbounds nuw %struct.subnet_entry_t, ptr %5, i32 0, i32 0
  %17 = load i32, ptr %16, align 8
  %18 = icmp ne i32 0, %17
  br i1 %18, label %19, label %77

19:                                               ; preds = %2
  call void @llvm.lifetime.start.p0(i64 4, ptr %8) #16
  call void @llvm.lifetime.start.p0(i64 16, ptr %9) #16
  call void @llvm.lifetime.start.p0(i64 8, ptr %10) #16
  call void @llvm.lifetime.start.p0(i64 8, ptr %11) #16
  %20 = load i32, ptr %3, align 4
  %21 = getelementptr inbounds nuw %struct.subnet_entry_t, ptr %5, i32 0, i32 0
  %22 = load i32, ptr %21, align 8
  %23 = xor i32 %22, -1
  %24 = and i32 %20, %23
  store i32 %24, ptr %8, align 4
  %25 = getelementptr inbounds [16 x i8], ptr %9, i64 0, i64 0
  call void @ip_addr_to_str_buf(ptr noundef %8, ptr noundef %25, i32 noundef 16)
  %26 = getelementptr inbounds [16 x i8], ptr %9, i64 0, i64 0
  store ptr %26, ptr %10, align 8
  %27 = getelementptr inbounds nuw %struct.subnet_entry_t, ptr %5, i32 0, i32 1
  %28 = load i64, ptr %27, align 8
  %29 = udiv i64 %28, 8
  store i64 %29, ptr %11, align 8
  br label %30

30:                                               ; preds = %49, %19
  %31 = load ptr, ptr %10, align 8
  %32 = load i8, ptr %31, align 1
  %33 = sext i8 %32 to i32
  %34 = icmp ne i32 %33, 0
  br i1 %34, label %35, label %38

35:                                               ; preds = %30
  %36 = load i64, ptr %11, align 8
  %37 = icmp ugt i64 %36, 0
  br label %38

38:                                               ; preds = %35, %30
  %39 = phi i1 [ false, %30 ], [ %37, %35 ]
  br i1 %39, label %40, label %50

40:                                               ; preds = %38
  %41 = load ptr, ptr %10, align 8
  %42 = getelementptr i8, ptr %41, i32 1
  store ptr %42, ptr %10, align 8
  %43 = load i8, ptr %42, align 1
  %44 = sext i8 %43 to i32
  %45 = icmp eq i32 %44, 46
  br i1 %45, label %46, label %49

46:                                               ; preds = %40
  %47 = load i64, ptr %11, align 8
  %48 = add i64 %47, -1
  store i64 %48, ptr %11, align 8
  br label %49

49:                                               ; preds = %46, %40
  br label %30, !llvm.loop !12

50:                                               ; preds = %38
  %51 = load volatile ptr, ptr %4, align 8
  %52 = getelementptr inbounds nuw %struct.hashipv4, ptr %51, i32 0, i32 3
  %53 = getelementptr inbounds [256 x i8], ptr %52, i64 0, i64 0
  %54 = getelementptr inbounds nuw %struct.subnet_entry_t, ptr %5, i32 0, i32 2
  %55 = load ptr, ptr %54, align 8
  %56 = load ptr, ptr %10, align 8
  %57 = call i32 (ptr, i64, i32, i64, ptr, ...) @__snprintf_chk(ptr noundef %53, i64 noundef 256, i32 noundef 2, i64 noundef 256, ptr noundef @.str.4, ptr noundef %55, ptr noundef %56)
  call void @llvm.lifetime.start.p0(i64 4, ptr %12) #16
  %58 = load i32, ptr %3, align 4
  %59 = getelementptr inbounds nuw %struct.subnet_entry_t, ptr %5, i32 0, i32 0
  %60 = load i32, ptr %59, align 8
  %61 = and i32 %58, %60
  store i32 %61, ptr %12, align 4
  call void @llvm.lifetime.start.p0(i64 16, ptr %13) #16
  %62 = getelementptr inbounds [16 x i8], ptr %13, i64 0, i64 0
  call void @ip_addr_to_str_buf(ptr noundef %12, ptr noundef %62, i32 noundef 16)
  call void @llvm.lifetime.start.p0(i64 19, ptr %14) #16
  %63 = getelementptr inbounds [19 x i8], ptr %14, i64 0, i64 0
  %64 = getelementptr inbounds [16 x i8], ptr %13, i64 0, i64 0
  %65 = getelementptr inbounds nuw %struct.subnet_entry_t, ptr %5, i32 0, i32 1
  %66 = load i64, ptr %65, align 8
  %67 = trunc i64 %66 to i32
  %68 = call i32 (ptr, i64, i32, i64, ptr, ...) @__snprintf_chk(ptr noundef %63, i64 noundef 19, i32 noundef 2, i64 noundef 19, ptr noundef @.str.5, ptr noundef %64, ptr noundef @.str.6, i32 noundef %67)
  %69 = load volatile ptr, ptr %4, align 8
  %70 = getelementptr inbounds nuw %struct.hashipv4, ptr %69, i32 0, i32 4
  %71 = getelementptr inbounds [19 x i8], ptr %70, i64 0, i64 0
  %72 = getelementptr inbounds [16 x i8], ptr %13, i64 0, i64 0
  %73 = getelementptr inbounds nuw %struct.subnet_entry_t, ptr %5, i32 0, i32 1
  %74 = load i64, ptr %73, align 8
  %75 = trunc i64 %74 to i32
  %76 = call i32 (ptr, i64, i32, i64, ptr, ...) @__snprintf_chk(ptr noundef %71, i64 noundef 19, i32 noundef 2, i64 noundef 19, ptr noundef @.str.5, ptr noundef %72, ptr noundef @.str.6, i32 noundef %75)
  store i8 1, ptr %6, align 1
  call void @llvm.lifetime.end.p0(i64 19, ptr %14) #16
  call void @llvm.lifetime.end.p0(i64 16, ptr %13) #16
  call void @llvm.lifetime.end.p0(i64 4, ptr %12) #16
  call void @llvm.lifetime.end.p0(i64 8, ptr %11) #16
  call void @llvm.lifetime.end.p0(i64 8, ptr %10) #16
  call void @llvm.lifetime.end.p0(i64 16, ptr %9) #16
  call void @llvm.lifetime.end.p0(i64 4, ptr %8) #16
  br label %84

77:                                               ; preds = %2
  %78 = load volatile ptr, ptr %4, align 8
  %79 = getelementptr inbounds nuw %struct.hashipv4, ptr %78, i32 0, i32 3
  %80 = getelementptr inbounds [256 x i8], ptr %79, i64 0, i64 0
  call void @ip_addr_to_str_buf(ptr noundef %3, ptr noundef %80, i32 noundef 256)
  %81 = load volatile ptr, ptr %4, align 8
  %82 = getelementptr inbounds nuw %struct.hashipv4, ptr %81, i32 0, i32 4
  %83 = getelementptr inbounds [19 x i8], ptr %82, i64 0, i64 0
  call void @ip_addr_to_str_buf(ptr noundef %3, ptr noundef %83, i32 noundef 256)
  br label %84

84:                                               ; preds = %77, %50
  %85 = load i8, ptr %6, align 1, !range !8, !noundef !9
  %86 = trunc i8 %85 to i1
  call void @llvm.lifetime.end.p0(i64 1, ptr %6) #16
  call void @llvm.lifetime.end.p0(i64 24, ptr %5) #16
  ret i1 %86
}