; Function Attrs: null_pointer_is_valid sspstrong uwtable
define noundef zeroext i1 @fill_dummy_ip4(i32 noundef %0, ptr noundef %1) local_unnamed_addr #3 {
  %3 = alloca i32, align 4
  %4 = alloca ptr, align 8
  %5 = alloca i32, align 4
  %6 = alloca [16 x i8], align 16
  %7 = alloca i32, align 4
  %8 = alloca [16 x i8], align 16
  %9 = alloca [19 x i8], align 16
  store i32 %0, ptr %3, align 4
  store volatile ptr %1, ptr %4, align 8
  %.b30.i = load i1, ptr @have_subnet_entry, align 1, !noalias !8
  br i1 %.b30.i, label %.lr.ph43.i, label %subnet_lookup.exit.thread

.lr.ph43.i:                                       ; preds = %2, %.critedge36.i
  %indvars.iv.i = phi i64 [ %indvars.iv.next.i, %.critedge36.i ], [ 32, %2 ]
  %indvars.iv.next.i = add nsw i64 %indvars.iv.i, -1
  %10 = getelementptr [32 x %struct.subnet_length_entry_t], ptr @subnet_length_entries, i64 0, i64 %indvars.iv.next.i
  %11 = getelementptr inbounds nuw i8, ptr %10, i64 16
  %12 = load ptr, ptr %11, align 8, !noalias !8
  %.not.i = icmp eq ptr %12, null
  br i1 %.not.i, label %.critedge36.i, label %13

13:                                               ; preds = %.lr.ph43.i
  %14 = getelementptr inbounds nuw i8, ptr %10, i64 8
  %15 = load i32, ptr %14, align 8, !noalias !8
  %16 = and i32 %15, %0
  %17 = tail call i32 asm "bswapl $0", "=r,0,~{dirflag},~{fpsr},~{flags}"(i32 %16) #27, !srcloc !11
  %18 = and i32 %17, 2047
  %19 = zext nneg i32 %18 to i64
  %20 = getelementptr ptr, ptr %12, i64 %19
  %.02839.i = load ptr, ptr %20, align 8, !noalias !8
  %.not3140.i = icmp eq ptr %.02839.i, null
  br i1 %.not3140.i, label %.critedge36.i, label %.lr.ph.i

.lr.ph.i:                                         ; preds = %13, %22
  %.02841.i = phi ptr [ %.028.i, %22 ], [ %.02839.i, %13 ]
  %21 = load i32, ptr %.02841.i, align 8, !noalias !8
  %.not32.i = icmp eq i32 %21, %16
  br i1 %.not32.i, label %subnet_lookup.exit, label %22

22:                                               ; preds = %.lr.ph.i
  %23 = getelementptr inbounds nuw i8, ptr %.02841.i, i64 8
  %.028.i = load ptr, ptr %23, align 8, !noalias !8
  %.not31.i = icmp eq ptr %.028.i, null
  br i1 %.not31.i, label %.critedge36.i, label %.lr.ph.i, !llvm.loop !12

.critedge36.i:                                    ; preds = %22, %13, %.lr.ph43.i
  %.not44.i = icmp eq i64 %indvars.iv.next.i, 0
  br i1 %.not44.i, label %subnet_lookup.exit.thread, label %.lr.ph43.i

subnet_lookup.exit:                               ; preds = %.lr.ph.i
  %24 = getelementptr inbounds nuw i8, ptr %.02841.i, i64 16
  %.not.not = icmp eq i32 %15, 0
  br i1 %.not.not, label %subnet_lookup.exit.thread, label %25

25:                                               ; preds = %subnet_lookup.exit
  call void @llvm.lifetime.start.p0(i64 4, ptr nonnull %5) #24
  call void @llvm.lifetime.start.p0(i64 16, ptr nonnull %6) #24
  %26 = xor i32 %15, -1
  %27 = and i32 %0, %26
  store i32 %27, ptr %5, align 4
  call void @ip_addr_to_str_buf(ptr noundef nonnull %5, ptr noundef nonnull %6, i32 noundef 16)
  %28 = lshr i64 %indvars.iv.i, 3
  %29 = and i64 %28, 536870911
  %30 = load i8, ptr %6, align 16
  %31 = icmp ne i8 %30, 0
  %32 = icmp ne i64 %29, 0
  %33 = and i1 %31, %32
  br i1 %33, label %.lr.ph, label %._crit_edge

.lr.ph:                                           ; preds = %25, %.lr.ph
  %.026 = phi i64 [ %spec.select, %.lr.ph ], [ %29, %25 ]
  %.01425 = phi ptr [ %34, %.lr.ph ], [ %6, %25 ]
  %34 = getelementptr i8, ptr %.01425, i64 1
  %35 = load i8, ptr %34, align 1
  %36 = icmp eq i8 %35, 46
  %37 = sext i1 %36 to i64
  %spec.select = add nsw i64 %.026, %37
  %38 = icmp ne i8 %35, 0
  %39 = icmp ne i64 %spec.select, 0
  %40 = select i1 %38, i1 %39, i1 false
  br i1 %40, label %.lr.ph, label %._crit_edge, !llvm.loop !13

._crit_edge:                                      ; preds = %.lr.ph, %25
  %.014.lcssa = phi ptr [ %6, %25 ], [ %34, %.lr.ph ]
  %.0..0..0..0.10 = load volatile ptr, ptr %4, align 8
  %41 = getelementptr inbounds nuw i8, ptr %.0..0..0..0.10, i64 21
  %42 = call i32 (ptr, i64, i32, i64, ptr, ...) @__snprintf_chk(ptr noundef nonnull %41, i64 noundef 256, i32 noundef 2, i64 noundef 256, ptr noundef nonnull @.str.4, ptr noundef nonnull %24, ptr noundef %.014.lcssa)
  call void @llvm.lifetime.start.p0(i64 4, ptr nonnull %7) #24
  %43 = load i32, ptr %3, align 4
  %44 = and i32 %43, %15
  store i32 %44, ptr %7, align 4
  call void @llvm.lifetime.start.p0(i64 16, ptr nonnull %8) #24
  call void @ip_addr_to_str_buf(ptr noundef nonnull %7, ptr noundef nonnull %8, i32 noundef 16)
  call void @llvm.lifetime.start.p0(i64 19, ptr nonnull %9) #24
  %45 = trunc i64 %indvars.iv.i to i32
  %46 = call i32 (ptr, i64, i32, i64, ptr, ...) @__snprintf_chk(ptr noundef nonnull %9, i64 noundef 19, i32 noundef 2, i64 noundef 19, ptr noundef nonnull @.str.5, ptr noundef nonnull %8, ptr noundef nonnull @.str.6, i32 noundef %45)
  %.0..0..0..0.11 = load volatile ptr, ptr %4, align 8
  %47 = getelementptr inbounds nuw i8, ptr %.0..0..0..0.11, i64 277
  %48 = call i32 (ptr, i64, i32, i64, ptr, ...) @__snprintf_chk(ptr noundef nonnull %47, i64 noundef 19, i32 noundef 2, i64 noundef 19, ptr noundef nonnull @.str.5, ptr noundef nonnull %8, ptr noundef nonnull @.str.6, i32 noundef %45)
  call void @llvm.lifetime.end.p0(i64 19, ptr nonnull %9) #24
  call void @llvm.lifetime.end.p0(i64 16, ptr nonnull %8) #24
  call void @llvm.lifetime.end.p0(i64 4, ptr nonnull %7) #24
  call void @llvm.lifetime.end.p0(i64 16, ptr nonnull %6) #24
  call void @llvm.lifetime.end.p0(i64 4, ptr nonnull %5) #24
  br label %51

subnet_lookup.exit.thread:                        ; preds = %.critedge36.i, %2, %subnet_lookup.exit
  %.0..0..0..0.12 = load volatile ptr, ptr %4, align 8
  %49 = getelementptr inbounds nuw i8, ptr %.0..0..0..0.12, i64 21
  call void @ip_addr_to_str_buf(ptr noundef nonnull %3, ptr noundef nonnull %49, i32 noundef 256)
  %.0..0..0..0.13 = load volatile ptr, ptr %4, align 8
  %50 = getelementptr inbounds nuw i8, ptr %.0..0..0..0.13, i64 277
  call void @ip_addr_to_str_buf(ptr noundef nonnull %3, ptr noundef nonnull %50, i32 noundef 256)
  br label %51

51:                                               ; preds = %subnet_lookup.exit.thread, %._crit_edge
  %.not21 = phi i1 [ false, %subnet_lookup.exit.thread ], [ true, %._crit_edge ]
  ret i1 %.not21
}